Certificate:
    Data:
        Version: 3 (0x2)
        Serial Number: 1 (0x1)
        Signature Algorithm: sha1WithRSAEncryption
        Issuer: C=CH, ST=Geneva, L=Geneva, O=CERN, OU=PH-ADP-CO, CN=DDMLAB Certification Authority/emailAddress=ph-adp-ddm-lab@cern.ch
        Validity
            Not Before: Aug  9 06:59:24 2012 GMT
            Not After : Dec 25 06:59:24 2039 GMT
        Subject: C=CH, ST=Geneva, O=CERN, OU=PH-ADP-CO, CN=JDOE/emailAddress=jdoe@cern.ch
        Subject Public Key Info:
            Public Key Algorithm: rsaEncryption
            RSA Public Key: (1024 bit)
                Modulus (1024 bit):
                    00:aa:a9:98:e2:54:79:a6:e5:7a:0d:62:8d:f8:9b:
                    59:8b:85:e7:17:59:61:30:41:3e:ce:24:90:81:f9:
                    2c:f7:a8:34:b4:6d:6c:24:2b:39:61:a0:6a:8d:6e:
                    27:96:56:f6:50:5b:5a:5b:79:a4:73:b6:c2:65:d1:
                    b2:9f:86:41:ef:04:35:72:f9:79:c0:34:47:fc:d3:
                    4f:27:51:98:e3:b8:95:2c:ac:d1:ba:fa:a4:b4:f6:
                    0e:ce:f1:df:2f:e3:39:da:cb:d5:f2:0f:16:55:a5:
                    ad:52:65:4f:3f:87:d6:19:1b:a3:d4:7c:72:e5:c5:
                    26:d0:2d:34:77:13:a1:d1:a7
                Exponent: 65537 (0x10001)
        X509v3 extensions:
            X509v3 Basic Constraints: 
                CA:FALSE
            Netscape Comment: 
                OpenSSL Generated Certificate
            X509v3 Subject Key Identifier: 
                FA:44:94:5F:76:E8:99:57:67:0F:B6:48:2C:41:12:FD:D4:AF:18:E2
            X509v3 Authority Key Identifier: 
                DirName:/C=CH/ST=Geneva/L=Geneva/O=CERN/OU=PH-ADP-CO/CN=DDMLAB Certification Authority/emailAddress=ph-adp-ddm-lab@cern.ch
                serial:8E:A7:AA:48:9C:D3:FE:48

    Signature Algorithm: sha1WithRSAEncryption
        c4:e3:46:b9:60:70:fd:e8:36:80:7f:24:88:06:dd:d5:13:d4:
        58:18:b5:15:82:41:17:4b:98:80:21:a0:f5:55:e9:6f:5c:dc:
        76:29:50:6c:58:56:e4:95:dc:3f:96:44:37:f9:11:fd:f0:d8:
        44:b1:c1:19:cd:75:12:4b:07:da:a3:b8:ac:41:56:58:d2:7c:
        9c:ed:bf:49:48:55:c4:e9:9f:dd:f5:3d:da:91:5f:56:65:ce:
        8e:d4:05:1f:07:93:64:06:a9:c5:d1:f6:ea:1b:99:8e:7c:73:
        5d:66:be:54:b1:15:09:07:bf:31:8f:c3:10:31:5d:d1:d5:7f:
        ca:76
-----BEGIN CERTIFICATE-----
MIIDqDCCAxGgAwIBAgIBATANBgkqhkiG9w0BAQUFADCBojELMAkGA1UEBhMCQ0gx
DzANBgNVBAgTBkdlbmV2YTEPMA0GA1UEBxMGR2VuZXZhMQ0wCwYDVQQKEwRDRVJO
MRIwEAYDVQQLEwlQSC1BRFAtQ08xJzAlBgNVBAMTHkRETUxBQiBDZXJ0aWZpY2F0
aW9uIEF1dGhvcml0eTElMCMGCSqGSIb3DQEJARYWcGgtYWRwLWRkbS1sYWJAY2Vy
bi5jaDAeFw0xMjA4MDkwNjU5MjRaFw0zOTEyMjUwNjU5MjRaMG0xCzAJBgNVBAYT
AkNIMQ8wDQYDVQQIEwZHZW5ldmExDTALBgNVBAoTBENFUk4xEjAQBgNVBAsTCVBI
LUFEUC1DTzENMAsGA1UEAxMESkRPRTEbMBkGCSqGSIb3DQEJARYMamRvZUBjZXJu
LmNoMIGfMA0GCSqGSIb3DQEBAQUAA4GNADCBiQKBgQCqqZjiVHmm5XoNYo34m1mL
hecXWWEwQT7OJJCB+Sz3qDS0bWwkKzlhoGqNbieWVvZQW1pbeaRztsJl0bKfhkHv
BDVy+XnANEf8008nUZjjuJUsrNG6+qS09g7O8d8v4znay9XyDxZVpa1SZU8/h9YZ
G6PUfHLlxSbQLTR3E6HRpwIDAQABo4IBIDCCARwwCQYDVR0TBAIwADAsBglghkgB
hvhCAQ0EHxYdT3BlblNTTCBHZW5lcmF0ZWQgQ2VydGlmaWNhdGUwHQYDVR0OBBYE
FPpElF926JlXZw+2SCxBEv3UrxjiMIHBBgNVHSMEgbkwgbahgaikgaUwgaIxCzAJ
BgNVBAYTAkNIMQ8wDQYDVQQIEwZHZW5ldmExDzANBgNVBAcTBkdlbmV2YTENMAsG
A1UEChMEQ0VSTjESMBAGA1UECxMJUEgtQURQLUNPMScwJQYDVQQDEx5ERE1MQUIg
Q2VydGlmaWNhdGlvbiBBdXRob3JpdHkxJTAjBgkqhkiG9w0BCQEWFnBoLWFkcC1k
ZG0tbGFiQGNlcm4uY2iCCQCOp6pInNP+SDANBgkqhkiG9w0BAQUFAAOBgQDE40a5
YHD96DaAfySIBt3VE9RYGLUVgkEXS5iAIaD1VelvXNx2KVBsWFbkldw/lkQ3+RH9
8NhEscEZzXUSSwfao7isQVZY0nyc7b9JSFXE6Z/d9T3akV9WZc6O1AUfB5NkBqnF
0fbqG5mOfHNdZr5UsRUJB78xj8MQMV3R1X/Kdg==
-----END CERTIFICATE-----
-----BEGIN RSA PRIVATE KEY-----
MIICXQIBAAKBgQCqqZjiVHmm5XoNYo34m1mLhecXWWEwQT7OJJCB+Sz3qDS0bWwk
KzlhoGqNbieWVvZQW1pbeaRztsJl0bKfhkHvBDVy+XnANEf8008nUZjjuJUsrNG6
+qS09g7O8d8v4znay9XyDxZVpa1SZU8/h9YZG6PUfHLlxSbQLTR3E6HRpwIDAQAB
AoGAK1+PC3aMtG395wj1LAnPaDZP1Q9SNAFhBOMmFuJNG2QUgQaORWL24mjyq58j
UIIpd6LABB+WPBJmtZnl28UzXDFlgKV2DZ/xkohsl9qMubyHRaE8qNEmzHVsXpDR
3P88WZZZUJitYU2NZ+AEnAIcMEjV1eKxidNBmX4/4Bc29oECQQDTGowVWcR8lSAO
UITArIkUu34oBMeeSGyR9KC54ih1be118Pdlip9stYhn/knQcKIkWm+V9Xok4bZ5
XL7F8GUFAkEAzvU+wtK3wJBlWI77+GJUGpzoLbXtACW50SdmFcyd6ddZf2juFwKV
GgCPAknjqUDJRWT04HlLF11AEWSn9sabuwJBAMnRMWcgAMaR0qmctK12xT662Krt
luFtn84Rrq7G1aMeSsxcaEf9NNi63AN/iZXqeDiE9PTKT9F+r/Jqhj+5yPkCQQCm
tFmHqSCmlilselBwtRO2FCnZmC997OWOmkPaz2VsFTFcNfOCyWu89DI9z7L4hN0b
bsTphAp+mXigCgpZ94U9AkAd6ddU0AbXQ0gMv4FzBe6GjhxOMaHFPanJ6aVCX1OE
UTGtOLo024yCMvnPKl40YamfIcJ6CvZVEELaWvDGQPBJ
-----END RSA PRIVATE KEY-----
